target datalayout = "e-m:e-p270:32:32-p271:32:32-p272:64:64-i64:64-i128:128-f80:128-n8:16:32:64-S128"
target triple = "x86_64-pc-linux-gnu"

%struct.RelFileLocator = type { i32, i32, i32 }
%struct.RelationData = type { %struct.RelFileLocator, ptr, i32, i32, i8, i8, i8, i8, i8, i32, i32, i32, i32, ptr, ptr, i32, %struct.LockInfoData, ptr, ptr, ptr, ptr, ptr, i8, ptr, ptr, ptr, ptr, ptr, ptr, i32, ptr, i8, ptr, ptr, i32, i8, i32, ptr, i8, ptr, ptr, ptr, ptr, ptr, ptr, ptr, i32, ptr, ptr, ptr, ptr, ptr, ptr, ptr, ptr, ptr, ptr, ptr, ptr, ptr, ptr, ptr, ptr, ptr, ptr, ptr, i32, i8, ptr }
%struct.LockInfoData = type { %struct.LockRelId }
%struct.LockRelId = type { i32, i32 }
%struct.FormData_pg_class = type { i32, %struct.nameData, i32, i32, i32, i32, i32, i32, i32, i32, float, i32, i32, i8, i8, i8, i8, i16, i16, i8, i8, i8, i8, i8, i8, i8, i8, i32, i32, i32 }
%struct.nameData = type { [64 x i8] }
%struct.BufferManagerRelation = type { ptr, ptr, i8 }

; Function Attrs: inlinehint nounwind uwtable
define internal ptr @RelationGetSmgr(ptr noundef %0) #3 {
  %2 = alloca ptr, align 8
  %3 = alloca { i64, i32 }, align 8
  store ptr %0, ptr %2, align 8
  %4 = load ptr, ptr %2, align 8
  %5 = getelementptr inbounds nuw %struct.RelationData, ptr %4, i32 0, i32 1
  %6 = load ptr, ptr %5, align 8
  %7 = icmp eq ptr %6, null
  %8 = zext i1 %7 to i32
  %9 = icmp ne i32 %8, 0
  %10 = zext i1 %9 to i32
  %11 = sext i32 %10 to i64
  %12 = call i64 @llvm.expect.i64(i64 %11, i64 0)
  %13 = icmp ne i64 %12, 0
  br i1 %13, label %14, label %30

14:                                               ; preds = %1
  %15 = load ptr, ptr %2, align 8
  %16 = getelementptr inbounds nuw %struct.RelationData, ptr %15, i32 0, i32 0
  %17 = load ptr, ptr %2, align 8
  %18 = getelementptr inbounds nuw %struct.RelationData, ptr %17, i32 0, i32 3
  %19 = load i32, ptr %18, align 4
  call void @llvm.memcpy.p0.p0.i64(ptr align 8 %3, ptr align 8 %16, i64 12, i1 false)
  %20 = getelementptr inbounds nuw { i64, i32 }, ptr %3, i32 0, i32 0
  %21 = load i64, ptr %20, align 8
  %22 = getelementptr inbounds nuw { i64, i32 }, ptr %3, i32 0, i32 1
  %23 = load i32, ptr %22, align 8
  %24 = call ptr @smgropen(i64 %21, i32 %23, i32 noundef %19)
  %25 = load ptr, ptr %2, align 8
  %26 = getelementptr inbounds nuw %struct.RelationData, ptr %25, i32 0, i32 1
  store ptr %24, ptr %26, align 8
  %27 = load ptr, ptr %2, align 8
  %28 = getelementptr inbounds nuw %struct.RelationData, ptr %27, i32 0, i32 1
  %29 = load ptr, ptr %28, align 8
  call void @smgrpin(ptr noundef %29)
  br label %30

30:                                               ; preds = %14, %1
  %31 = load ptr, ptr %2, align 8
  %32 = getelementptr inbounds nuw %struct.RelationData, ptr %31, i32 0, i32 1
  %33 = load ptr, ptr %32, align 8
  ret ptr %33
}

; Function Attrs: nounwind uwtable
define dso_local i32 @ExtendBufferedRelBy(ptr noundef byval(%struct.BufferManagerRelation) align 8 %0, i32 noundef %1, ptr noundef %2, i32 noundef %3, i32 noundef %4, ptr noundef %5, ptr noundef %6) #0 {
  %8 = alloca i32, align 4
  %9 = alloca ptr, align 8
  %10 = alloca i32, align 4
  %11 = alloca i32, align 4
  %12 = alloca ptr, align 8
  %13 = alloca ptr, align 8
  store i32 %1, ptr %8, align 4
  store ptr %2, ptr %9, align 8
  store i32 %3, ptr %10, align 4
  store i32 %4, ptr %11, align 4
  store ptr %5, ptr %12, align 8
  store ptr %6, ptr %13, align 8
  %14 = getelementptr inbounds nuw %struct.BufferManagerRelation, ptr %0, i32 0, i32 1
  %15 = load ptr, ptr %14, align 8
  %16 = icmp eq ptr %15, null
  br i1 %16, label %17, label %29

17:                                               ; preds = %7
  %18 = getelementptr inbounds nuw %struct.BufferManagerRelation, ptr %0, i32 0, i32 0
  %19 = load ptr, ptr %18, align 8
  %20 = call ptr @RelationGetSmgr(ptr noundef %19)
  %21 = getelementptr inbounds nuw %struct.BufferManagerRelation, ptr %0, i32 0, i32 1
  store ptr %20, ptr %21, align 8
  %22 = getelementptr inbounds nuw %struct.BufferManagerRelation, ptr %0, i32 0, i32 0
  %23 = load ptr, ptr %22, align 8
  %24 = getelementptr inbounds nuw %struct.RelationData, ptr %23, i32 0, i32 13
  %25 = load ptr, ptr %24, align 8
  %26 = getelementptr inbounds nuw %struct.FormData_pg_class, ptr %25, i32 0, i32 15
  %27 = load i8, ptr %26, align 2
  %28 = getelementptr inbounds nuw %struct.BufferManagerRelation, ptr %0, i32 0, i32 2
  store i8 %27, ptr %28, align 8
  br label %29

29:                                               ; preds = %17, %7
  %30 = load i32, ptr %8, align 4
  %31 = load ptr, ptr %9, align 8
  %32 = load i32, ptr %10, align 4
  %33 = load i32, ptr %11, align 4
  %34 = load ptr, ptr %12, align 8
  %35 = load ptr, ptr %13, align 8
  %36 = call i32 @ExtendBufferedRelCommon(ptr noundef byval(%struct.BufferManagerRelation) align 8 %0, i32 noundef %30, ptr noundef %31, i32 noundef %32, i32 noundef %33, i32 noundef -1, ptr noundef %34, ptr noundef %35)
  ret i32 %36
}