; Function Attrs: nounwind uwtable
define dso_local i32 @ExtendBufferedRelBy(ptr noundef byval(%struct.BufferManagerRelation) align 8 captures(none) %0, i32 noundef %1, ptr noundef %2, i32 noundef %3, i32 noundef %4, ptr noundef %5, ptr noundef writeonly captures(none) %6) local_unnamed_addr #0 {
  %8 = getelementptr inbounds nuw i8, ptr %0, i64 8
  %9 = load ptr, ptr %8, align 8
  %10 = icmp eq ptr %9, null
  br i1 %10, label %11, label %26

11:                                               ; preds = %7
  %12 = load ptr, ptr %0, align 8
  %13 = getelementptr inbounds nuw i8, ptr %12, i64 16
  %14 = load ptr, ptr %13, align 8
  %15 = icmp eq ptr %14, null
  br i1 %15, label %16, label %RelationGetSmgr.exit, !prof !7

16:                                               ; preds = %11
  %17 = getelementptr inbounds nuw i8, ptr %12, i64 28
  %18 = load i32, ptr %17, align 4
  %.sroa.0.0.copyload.i = load i64, ptr %12, align 8
  %.sroa.2.0..sroa_idx.i = getelementptr inbounds nuw i8, ptr %12, i64 8
  %.sroa.2.0.copyload.i = load i32, ptr %.sroa.2.0..sroa_idx.i, align 8
  %19 = tail call ptr @smgropen(i64 %.sroa.0.0.copyload.i, i32 %.sroa.2.0.copyload.i, i32 noundef %18) #16
  store ptr %19, ptr %13, align 8
  tail call void @smgrpin(ptr noundef %19) #16
  %.pre.i = load ptr, ptr %13, align 8
  br label %RelationGetSmgr.exit

RelationGetSmgr.exit:                             ; preds = %11, %16
  %20 = phi ptr [ %.pre.i, %16 ], [ %14, %11 ]
  store ptr %20, ptr %8, align 8
  %21 = getelementptr inbounds nuw i8, ptr %12, i64 56
  %22 = load ptr, ptr %21, align 8
  %23 = getelementptr inbounds nuw i8, ptr %22, i64 114
  %24 = load i8, ptr %23, align 2
  %25 = getelementptr inbounds nuw i8, ptr %0, i64 16
  store i8 %24, ptr %25, align 8
  br label %26

26:                                               ; preds = %RelationGetSmgr.exit, %7
  %27 = tail call fastcc i32 @ExtendBufferedRelCommon(ptr noundef nonnull byval(%struct.BufferManagerRelation) align 8 %0, i32 noundef %1, ptr noundef %2, i32 noundef %3, i32 noundef %4, i32 noundef -1, ptr noundef %5, ptr noundef %6)
  ret i32 %27
}